target datalayout = "e-m:e-p270:32:32-p271:32:32-p272:64:64-i64:64-i128:128-f80:128-n8:16:32:64-S128"
target triple = "x86_64-pc-linux-gnu"

%struct.magic_set = type { [2 x ptr], %struct.cont, %struct.out, i32, i32, i32, i32, i32, ptr, i64, i32, %struct.anon, %union.VALUETYPE, i16, i16, i16, i16, i16, i16, i64, i64, i64 }
%struct.cont = type { i64, ptr }
%struct.out = type { ptr, i64, ptr }
%struct.anon = type { ptr, i64, i64, i64 }
%union.VALUETYPE = type { [2 x i64], [112 x i8] }
%struct.__va_list_tag = type { i32, i32, ptr, ptr }

@.str.34 = private unnamed_addr constant [10 x i8] c"line %zu:\00", align 1
@.str.35 = private unnamed_addr constant [2 x i8] c" \00", align 1
@.str.36 = private unnamed_addr constant [6 x i8] c" (%s)\00", align 1

; Function Attrs: nounwind uwtable
define internal void @file_clearbuf(ptr noundef %0) #0 {
  %2 = alloca ptr, align 8
  store ptr %0, ptr %2, align 8
  %3 = load ptr, ptr %2, align 8
  %4 = getelementptr inbounds %struct.magic_set, ptr %3, i32 0, i32 2
  %5 = getelementptr inbounds %struct.out, ptr %4, i32 0, i32 0
  %6 = load ptr, ptr %5, align 8
  call void @_efree(ptr noundef %6)
  %7 = load ptr, ptr %2, align 8
  %8 = getelementptr inbounds %struct.magic_set, ptr %7, i32 0, i32 2
  %9 = getelementptr inbounds %struct.out, ptr %8, i32 0, i32 0
  store ptr null, ptr %9, align 8
  %10 = load ptr, ptr %2, align 8
  %11 = getelementptr inbounds %struct.magic_set, ptr %10, i32 0, i32 2
  %12 = getelementptr inbounds %struct.out, ptr %11, i32 0, i32 1
  store i64 0, ptr %12, align 8
  ret void
}

; Function Attrs: nounwind uwtable
define internal void @file_error_core(ptr noundef %0, i32 noundef %1, ptr noundef %2, ptr noundef %3, i64 noundef %4) #0 {
  %6 = alloca ptr, align 8
  %7 = alloca i32, align 4
  %8 = alloca ptr, align 8
  %9 = alloca ptr, align 8
  %10 = alloca i64, align 8
  store ptr %0, ptr %6, align 8
  store i32 %1, ptr %7, align 4
  store ptr %2, ptr %8, align 8
  store ptr %3, ptr %9, align 8
  store i64 %4, ptr %10, align 8
  %11 = load ptr, ptr %6, align 8
  %12 = getelementptr inbounds %struct.magic_set, ptr %11, i32 0, i32 7
  %13 = load i32, ptr %12, align 8
  %14 = and i32 %13, 1
  %15 = icmp ne i32 %14, 0
  br i1 %15, label %16, label %17

16:                                               ; preds = %5
  br label %62

17:                                               ; preds = %5
  %18 = load i64, ptr %10, align 8
  %19 = icmp ne i64 %18, 0
  br i1 %19, label %20, label %25

20:                                               ; preds = %17
  %21 = load ptr, ptr %6, align 8
  call void @file_clearbuf(ptr noundef %21)
  %22 = load ptr, ptr %6, align 8
  %23 = load i64, ptr %10, align 8
  %24 = call i32 (ptr, ptr, ...) @file_printf(ptr noundef %22, ptr noundef @.str.34, i64 noundef %23)
  br label %25

25:                                               ; preds = %20, %17
  %26 = load ptr, ptr %6, align 8
  %27 = getelementptr inbounds %struct.magic_set, ptr %26, i32 0, i32 2
  %28 = getelementptr inbounds %struct.out, ptr %27, i32 0, i32 0
  %29 = load ptr, ptr %28, align 8
  %30 = icmp ne ptr %29, null
  br i1 %30, label %31, label %42

31:                                               ; preds = %25
  %32 = load ptr, ptr %6, align 8
  %33 = getelementptr inbounds %struct.magic_set, ptr %32, i32 0, i32 2
  %34 = getelementptr inbounds %struct.out, ptr %33, i32 0, i32 0
  %35 = load ptr, ptr %34, align 8
  %36 = load i8, ptr %35, align 1
  %37 = sext i8 %36 to i32
  %38 = icmp ne i32 %37, 0
  br i1 %38, label %39, label %42

39:                                               ; preds = %31
  %40 = load ptr, ptr %6, align 8
  %41 = call i32 (ptr, ptr, ...) @file_printf(ptr noundef %40, ptr noundef @.str.35)
  br label %42

42:                                               ; preds = %39, %31, %25
  %43 = load ptr, ptr %6, align 8
  %44 = load ptr, ptr %8, align 8
  %45 = load ptr, ptr %9, align 8
  %46 = call i32 @file_vprintf(ptr noundef %43, ptr noundef %44, ptr noundef %45)
  %47 = load i32, ptr %7, align 4
  %48 = icmp sgt i32 %47, 0
  br i1 %48, label %49, label %54

49:                                               ; preds = %42
  %50 = load ptr, ptr %6, align 8
  %51 = load i32, ptr %7, align 4
  %52 = call ptr @strerror(i32 noundef %51) #13
  %53 = call i32 (ptr, ptr, ...) @file_printf(ptr noundef %50, ptr noundef @.str.36, ptr noundef %52)
  br label %54

54:                                               ; preds = %49, %42
  %55 = load ptr, ptr %6, align 8
  %56 = getelementptr inbounds %struct.magic_set, ptr %55, i32 0, i32 7
  %57 = load i32, ptr %56, align 8
  %58 = or i32 %57, 1
  store i32 %58, ptr %56, align 8
  %59 = load i32, ptr %7, align 4
  %60 = load ptr, ptr %6, align 8
  %61 = getelementptr inbounds %struct.magic_set, ptr %60, i32 0, i32 5
  store i32 %59, ptr %61, align 8
  br label %62

62:                                               ; preds = %54, %16
  ret void
}

; Function Attrs: nounwind uwtable
define hidden void @file_magerror(ptr noundef %0, ptr noundef %1, ...) #0 {
  %3 = alloca ptr, align 8
  %4 = alloca ptr, align 8
  %5 = alloca [1 x %struct.__va_list_tag], align 16
  store ptr %0, ptr %3, align 8
  store ptr %1, ptr %4, align 8
  %6 = getelementptr inbounds [1 x %struct.__va_list_tag], ptr %5, i64 0, i64 0
  call void @llvm.va_start(ptr %6)
  %7 = load ptr, ptr %3, align 8
  %8 = load ptr, ptr %4, align 8
  %9 = getelementptr inbounds [1 x %struct.__va_list_tag], ptr %5, i64 0, i64 0
  %10 = load ptr, ptr %3, align 8
  %11 = getelementptr inbounds %struct.magic_set, ptr %10, i32 0, i32 9
  %12 = load i64, ptr %11, align 8
  call void @file_error_core(ptr noundef %7, i32 noundef 0, ptr noundef %8, ptr noundef %9, i64 noundef %12)
  %13 = getelementptr inbounds [1 x %struct.__va_list_tag], ptr %5, i64 0, i64 0
  call void @llvm.va_end(ptr %13)
  ret void
}