; Function Attrs: nounwind uwtable
define hidden void @file_magerror(ptr nocapture noundef %0, ptr noundef %1, ...) local_unnamed_addr #2 {
  %3 = alloca [1 x %struct.__va_list_tag], align 16
  call void @llvm.va_start(ptr nonnull %3)
  %4 = getelementptr inbounds i8, ptr %0, i64 88
  %5 = load i64, ptr %4, align 8
  %6 = getelementptr inbounds i8, ptr %0, i64 72
  %7 = load i32, ptr %6, align 8
  %8 = and i32 %7, 1
  %.not.i = icmp eq i32 %8, 0
  br i1 %.not.i, label %9, label %file_error_core.exit

9:                                                ; preds = %2
  %.not18.i = icmp eq i64 %5, 0
  br i1 %.not18.i, label %14, label %10

10:                                               ; preds = %9
  %11 = getelementptr inbounds i8, ptr %0, i64 32
  %12 = load ptr, ptr %11, align 8
  call void @_efree(ptr noundef %12) #17
  call void @llvm.memset.p0.i64(ptr noundef nonnull align 8 dereferenceable(16) %11, i8 0, i64 16, i1 false)
  %13 = call i32 (ptr, ptr, ...) @file_printf(ptr noundef nonnull %0, ptr noundef nonnull @.str.34, i64 noundef %5), !range !4
  br label %14

14:                                               ; preds = %10, %9
  %15 = getelementptr inbounds i8, ptr %0, i64 32
  %16 = load ptr, ptr %15, align 8
  %.not19.i = icmp eq ptr %16, null
  br i1 %.not19.i, label %21, label %17

17:                                               ; preds = %14
  %18 = load i8, ptr %16, align 1
  %.not20.i = icmp eq i8 %18, 0
  br i1 %.not20.i, label %21, label %19

19:                                               ; preds = %17
  %20 = call i32 (ptr, ptr, ...) @file_printf(ptr noundef nonnull %0, ptr noundef nonnull @.str.35), !range !4
  br label %21

21:                                               ; preds = %19, %17, %14
  %22 = call i32 @file_vprintf(ptr noundef nonnull %0, ptr noundef %1, ptr noundef nonnull %3), !range !4
  %23 = load i32, ptr %6, align 8
  %24 = or i32 %23, 1
  store i32 %24, ptr %6, align 8
  %25 = getelementptr inbounds i8, ptr %0, i64 64
  store i32 0, ptr %25, align 8
  br label %file_error_core.exit

file_error_core.exit:                             ; preds = %2, %21
  call void @llvm.va_end(ptr nonnull %3)
  ret void
}